; Function Attrs: nounwind uwtable
define ptr @l_Std_HashMap_get_x3f___at_Lean_Elab_Tactic_BVDecide_Frontend_Normalize_intToBitVecPass_replaceSize___spec__9(ptr noundef readonly captures(none) %0, ptr noundef %1) local_unnamed_addr #1 {
lean_dec.exit23:
  %2 = getelementptr inbounds nuw i8, ptr %0, i64 16
  %3 = load ptr, ptr %2, align 8, !tbaa !9
  %4 = getelementptr i8, ptr %3, i64 8
  %.val = load i64, ptr %4, align 8, !tbaa !12
  %5 = and i64 %.val, 9223372036854775807
  %6 = tail call i64 @l_Lean_Expr_hash(ptr noundef %1) #4
  %7 = lshr i64 %6, 32
  %8 = xor i64 %7, %6
  %9 = lshr i64 %8, 16
  %10 = xor i64 %9, %8
  %11 = add nsw i64 %5, -1
  %12 = and i64 %10, %11
  %13 = getelementptr inbounds nuw i8, ptr %3, i64 24
  %14 = getelementptr inbounds nuw [0 x ptr], ptr %13, i64 0, i64 %12
  %15 = load ptr, ptr %14, align 8, !tbaa !9
  %16 = ptrtoint ptr %15 to i64
  %17 = and i64 %16, 1
  %.not.i27 = icmp eq i64 %17, 0
  br i1 %.not.i27, label %18, label %lean_array_uget.exit

18:                                               ; preds = %lean_dec.exit23
  %.val.i.i = load i32, ptr %15, align 4, !tbaa !4
  %19 = icmp sgt i32 %.val.i.i, 0
  br i1 %19, label %20, label %22, !prof !11

20:                                               ; preds = %18
  %21 = add nuw i32 %.val.i.i, 1
  store i32 %21, ptr %15, align 4, !tbaa !4
  br label %25

22:                                               ; preds = %18
  %.not.i.i = icmp eq i32 %.val.i.i, 0
  br i1 %.not.i.i, label %25, label %23

23:                                               ; preds = %22
  tail call void @lean_inc_ref_cold(ptr noundef nonnull %15) #4
  br label %25

lean_array_uget.exit:                             ; preds = %lean_dec.exit23
  %24 = tail call ptr @l_Std_DHashMap_Internal_AssocList_get_x3f___at___private_Lean_Elab_Match_0__Lean_Elab_Term_ToDepElimPattern_applyRefMap___spec__1(ptr noundef %1, ptr noundef %15) #4
  br label %lean_dec.exit

25:                                               ; preds = %20, %22, %23
  %26 = tail call ptr @l_Std_DHashMap_Internal_AssocList_get_x3f___at___private_Lean_Elab_Match_0__Lean_Elab_Term_ToDepElimPattern_applyRefMap___spec__1(ptr noundef %1, ptr noundef nonnull %15) #4
  %27 = load i32, ptr %15, align 4, !tbaa !4
  %28 = icmp sgt i32 %27, 1
  br i1 %28, label %29, label %31, !prof !11

29:                                               ; preds = %25
  %30 = add nsw i32 %27, -1
  store i32 %30, ptr %15, align 4, !tbaa !4
  br label %lean_dec.exit

31:                                               ; preds = %25
  %.not.i24 = icmp eq i32 %27, 0
  br i1 %.not.i24, label %lean_dec.exit, label %32

32:                                               ; preds = %31
  tail call void @lean_dec_ref_cold(ptr noundef nonnull %15) #4
  br label %lean_dec.exit

lean_dec.exit:                                    ; preds = %32, %31, %29, %lean_array_uget.exit
  %33 = phi ptr [ %24, %lean_array_uget.exit ], [ %26, %29 ], [ %26, %31 ], [ %26, %32 ]
  ret ptr %33
}